; Function Attrs: nounwind uwtable
define range(i64 0, 18446744074) i64 @SSL_get_default_timeout(ptr noundef readonly captures(none) %0) local_unnamed_addr #0 {
  %2 = getelementptr inbounds nuw i8, ptr %0, i64 24
  %3 = load ptr, ptr %2, align 8, !tbaa !3
  %4 = getelementptr inbounds nuw i8, ptr %3, i64 208
  %5 = load ptr, ptr %4, align 8, !tbaa !395
  %6 = tail call i64 %5() #20
  %7 = udiv i64 %6, 1000000000
  ret i64 %7
}